; ModuleID = '25/1086.cpp'
source_filename = "25/1086.cpp"
target datalayout = "e-m:e-p270:32:32-p271:32:32-p272:64:64-i64:64-f80:128-n8:16:32:64-S128"
target triple = "x86_64-pc-linux-gnu"

%"class.std::ios_base::Init" = type { i8 }
%"class.std::basic_istream" = type { i32 (...)**, i64, %"class.std::basic_ios" }
%"class.std::basic_ios" = type { %"class.std::ios_base", %"class.std::basic_ostream"*, i8, i8, %"class.std::basic_streambuf"*, %"class.std::ctype"*, %"class.std::num_put"*, %"class.std::num_get"* }
%"class.std::ios_base" = type { i32 (...)**, i64, i64, i32, i32, i32, %"struct.std::ios_base::_Callback_list"*, %"struct.std::ios_base::_Words", [8 x %"struct.std::ios_base::_Words"], i32, %"struct.std::ios_base::_Words"*, %"class.std::locale" }
%"struct.std::ios_base::_Callback_list" = type { %"struct.std::ios_base::_Callback_list"*, void (i32, %"class.std::ios_base"*, i32)*, i32, i32 }
%"struct.std::ios_base::_Words" = type { i8*, i64 }
%"class.std::locale" = type { %"class.std::locale::_Impl"* }
%"class.std::locale::_Impl" = type { i32, %"class.std::locale::facet"**, i64, %"class.std::locale::facet"**, i8** }
%"class.std::locale::facet" = type <{ i32 (...)**, i32, [4 x i8] }>
%"class.std::basic_ostream" = type { i32 (...)**, %"class.std::basic_ios" }
%"class.std::basic_streambuf" = type { i32 (...)**, i8*, i8*, i8*, i8*, i8*, i8*, %"class.std::locale" }
%"class.std::ctype" = type <{ %"class.std::locale::facet.base", [4 x i8], %struct.__locale_struct*, i8, [7 x i8], i32*, i32*, i16*, i8, [256 x i8], [256 x i8], i8, [6 x i8] }>
%"class.std::locale::facet.base" = type <{ i32 (...)**, i32 }>
%struct.__locale_struct = type { [13 x %struct.__locale_data*], i16*, i32*, i32*, [13 x i8*] }
%struct.__locale_data = type opaque
%"class.std::num_put" = type { %"class.std::locale::facet.base", [4 x i8] }
%"class.std::num_get" = type { %"class.std::locale::facet.base", [4 x i8] }
%"struct.std::_Setprecision" = type { i32 }

$_ZSt5fixedRSt8ios_base = comdat any

$_ZSt12setprecisioni = comdat any

$_ZNSt8ios_base4setfESt13_Ios_FmtflagsS0_ = comdat any

$_ZStaNRSt13_Ios_FmtflagsS_ = comdat any

$_ZStcoSt13_Ios_Fmtflags = comdat any

$_ZStoRRSt13_Ios_FmtflagsS_ = comdat any

$_ZStanSt13_Ios_FmtflagsS_ = comdat any

$_ZStorSt13_Ios_FmtflagsS_ = comdat any

@_ZStL8__ioinit = internal global %"class.std::ios_base::Init" zeroinitializer, align 1
@__dso_handle = external hidden global i8
@_ZSt3cin = external dso_local global %"class.std::basic_istream", align 8
@_ZSt4cout = external dso_local global %"class.std::basic_ostream", align 8
@llvm.global_ctors = appending global [1 x { i32, void ()*, i8* }] [{ i32, void ()*, i8* } { i32 65535, void ()* @_GLOBAL__sub_I_1086.cpp, i8* null }]

; Function Attrs: noinline uwtable
define internal void @__cxx_global_var_init() #0 section ".text.startup" {
  call void @_ZNSt8ios_base4InitC1Ev(%"class.std::ios_base::Init"* @_ZStL8__ioinit)
  %1 = call i32 @__cxa_atexit(void (i8*)* bitcast (void (%"class.std::ios_base::Init"*)* @_ZNSt8ios_base4InitD1Ev to void (i8*)*), i8* getelementptr inbounds (%"class.std::ios_base::Init", %"class.std::ios_base::Init"* @_ZStL8__ioinit, i32 0, i32 0), i8* @__dso_handle) #3
  ret void
}

declare dso_local void @_ZNSt8ios_base4InitC1Ev(%"class.std::ios_base::Init"*) unnamed_addr #1

; Function Attrs: nounwind
declare dso_local void @_ZNSt8ios_base4InitD1Ev(%"class.std::ios_base::Init"*) unnamed_addr #2

; Function Attrs: nounwind
declare dso_local i32 @__cxa_atexit(void (i8*)*, i8*, i8*) #3

; Function Attrs: noinline norecurse uwtable
define dso_local i32 @main() #4 {
  %1 = alloca i32, align 4
  %2 = alloca double, align 8
  %3 = alloca %"struct.std::_Setprecision", align 4
  store i32 0, i32* %1, align 4
  %4 = call dereferenceable(280) %"class.std::basic_istream"* @_ZNSirsERd(%"class.std::basic_istream"* @_ZSt3cin, double* dereferenceable(8) %2)
  %5 = call dereferenceable(272) %"class.std::basic_ostream"* @_ZNSolsEPFRSt8ios_baseS0_E(%"class.std::basic_ostream"* @_ZSt4cout, %"class.std::ios_base"* (%"class.std::ios_base"*)* @_ZSt5fixedRSt8ios_base)
  %6 = call i32 @_ZSt12setprecisioni(i32 0)
  %7 = getelementptr inbounds %"struct.std::_Setprecision", %"struct.std::_Setprecision"* %3, i32 0, i32 0
  store i32 %6, i32* %7, align 4
  %8 = getelementptr inbounds %"struct.std::_Setprecision", %"struct.std::_Setprecision"* %3, i32 0, i32 0
  %9 = load i32, i32* %8, align 4
  %10 = call dereferenceable(272) %"class.std::basic_ostream"* @_ZStlsIcSt11char_traitsIcEERSt13basic_ostreamIT_T0_ES6_St13_Setprecision(%"class.std::basic_ostream"* dereferenceable(272) %5, i32 %9)
  %11 = load double, double* %2, align 8
  %12 = call double @pow(double 2.000000e+00, double %11) #3
  %13 = call dereferenceable(272) %"class.std::basic_ostream"* @_ZNSolsEd(%"class.std::basic_ostream"* %10, double %12)
  %14 = call dereferenceable(272) %"class.std::basic_ostream"* @_ZNSolsEPFRSoS_E(%"class.std::basic_ostream"* %13, %"class.std::basic_ostream"* (%"class.std::basic_ostream"*)* @_ZSt4endlIcSt11char_traitsIcEERSt13basic_ostreamIT_T0_ES6_)
  ret i32 0
}

declare dso_local dereferenceable(280) %"class.std::basic_istream"* @_ZNSirsERd(%"class.std::basic_istream"*, double* dereferenceable(8)) #1

declare dso_local dereferenceable(272) %"class.std::basic_ostream"* @_ZStlsIcSt11char_traitsIcEERSt13basic_ostreamIT_T0_ES6_St13_Setprecision(%"class.std::basic_ostream"* dereferenceable(272), i32) #1

declare dso_local dereferenceable(272) %"class.std::basic_ostream"* @_ZNSolsEPFRSt8ios_baseS0_E(%"class.std::basic_ostream"*, %"class.std::ios_base"* (%"class.std::ios_base"*)*) #1

; Function Attrs: noinline uwtable
define linkonce_odr dso_local dereferenceable(216) %"class.std::ios_base"* @_ZSt5fixedRSt8ios_base(%"class.std::ios_base"* dereferenceable(216) %0) #0 comdat {
  %2 = alloca %"class.std::ios_base"*, align 8
  store %"class.std::ios_base"* %0, %"class.std::ios_base"** %2, align 8
  %3 = load %"class.std::ios_base"*, %"class.std::ios_base"** %2, align 8
  %4 = call i32 @_ZNSt8ios_base4setfESt13_Ios_FmtflagsS0_(%"class.std::ios_base"* %3, i32 4, i32 260)
  %5 = load %"class.std::ios_base"*, %"class.std::ios_base"** %2, align 8
  ret %"class.std::ios_base"* %5
}

; Function Attrs: noinline nounwind uwtable
define linkonce_odr dso_local i32 @_ZSt12setprecisioni(i32 %0) #5 comdat {
  %2 = alloca %"struct.std::_Setprecision", align 4
  %3 = alloca i32, align 4
  store i32 %0, i32* %3, align 4
  %4 = getelementptr inbounds %"struct.std::_Setprecision", %"struct.std::_Setprecision"* %2, i32 0, i32 0
  %5 = load i32, i32* %3, align 4
  store i32 %5, i32* %4, align 4
  %6 = getelementptr inbounds %"struct.std::_Setprecision", %"struct.std::_Setprecision"* %2, i32 0, i32 0
  %7 = load i32, i32* %6, align 4
  ret i32 %7
}

declare dso_local dereferenceable(272) %"class.std::basic_ostream"* @_ZNSolsEd(%"class.std::basic_ostream"*, double) #1

; Function Attrs: nounwind
declare dso_local double @pow(double, double) #2

declare dso_local dereferenceable(272) %"class.std::basic_ostream"* @_ZNSolsEPFRSoS_E(%"class.std::basic_ostream"*, %"class.std::basic_ostream"* (%"class.std::basic_ostream"*)*) #1

declare dso_local dereferenceable(272) %"class.std::basic_ostream"* @_ZSt4endlIcSt11char_traitsIcEERSt13basic_ostreamIT_T0_ES6_(%"class.std::basic_ostream"* dereferenceable(272)) #1

; Function Attrs: noinline uwtable
define linkonce_odr dso_local i32 @_ZNSt8ios_base4setfESt13_Ios_FmtflagsS0_(%"class.std::ios_base"* %0, i32 %1, i32 %2) #0 comdat align 2 {
  %4 = alloca %"class.std::ios_base"*, align 8
  %5 = alloca i32, align 4
  %6 = alloca i32, align 4
  %7 = alloca i32, align 4
  store %"class.std::ios_base"* %0, %"class.std::ios_base"** %4, align 8
  store i32 %1, i32* %5, align 4
  store i32 %2, i32* %6, align 4
  %8 = load %"class.std::ios_base"*, %"class.std::ios_base"** %4, align 8
  %9 = getelementptr inbounds %"class.std::ios_base", %"class.std::ios_base"* %8, i32 0, i32 3
  %10 = load i32, i32* %9, align 8
  store i32 %10, i32* %7, align 4
  %11 = load i32, i32* %6, align 4
  %12 = call i32 @_ZStcoSt13_Ios_Fmtflags(i32 %11)
  %13 = getelementptr inbounds %"class.std::ios_base", %"class.std::ios_base"* %8, i32 0, i32 3
  %14 = call dereferenceable(4) i32* @_ZStaNRSt13_Ios_FmtflagsS_(i32* dereferenceable(4) %13, i32 %12)
  %15 = load i32, i32* %5, align 4
  %16 = load i32, i32* %6, align 4
  %17 = call i32 @_ZStanSt13_Ios_FmtflagsS_(i32 %15, i32 %16)
  %18 = getelementptr inbounds %"class.std::ios_base", %"class.std::ios_base"* %8, i32 0, i32 3
  %19 = call dereferenceable(4) i32* @_ZStoRRSt13_Ios_FmtflagsS_(i32* dereferenceable(4) %18, i32 %17)
  %20 = load i32, i32* %7, align 4
  ret i32 %20
}

; Function Attrs: noinline uwtable
define linkonce_odr dso_local dereferenceable(4) i32* @_ZStaNRSt13_Ios_FmtflagsS_(i32* dereferenceable(4) %0, i32 %1) #0 comdat {
  %3 = alloca i32*, align 8
  %4 = alloca i32, align 4
  store i32* %0, i32** %3, align 8
  store i32 %1, i32* %4, align 4
  %5 = load i32*, i32** %3, align 8
  %6 = load i32, i32* %5, align 4
  %7 = load i32, i32* %4, align 4
  %8 = call i32 @_ZStanSt13_Ios_FmtflagsS_(i32 %6, i32 %7)
  %9 = load i32*, i32** %3, align 8
  store i32 %8, i32* %9, align 4
  ret i32* %9
}

; Function Attrs: noinline nounwind uwtable
define linkonce_odr dso_local i32 @_ZStcoSt13_Ios_Fmtflags(i32 %0) #5 comdat {
  %2 = alloca i32, align 4
  store i32 %0, i32* %2, align 4
  %3 = load i32, i32* %2, align 4
  %4 = xor i32 %3, -1
  ret i32 %4
}

; Function Attrs: noinline uwtable
define linkonce_odr dso_local dereferenceable(4) i32* @_ZStoRRSt13_Ios_FmtflagsS_(i32* dereferenceable(4) %0, i32 %1) #0 comdat {
  %3 = alloca i32*, align 8
  %4 = alloca i32, align 4
  store i32* %0, i32** %3, align 8
  store i32 %1, i32* %4, align 4
  %5 = load i32*, i32** %3, align 8
  %6 = load i32, i32* %5, align 4
  %7 = load i32, i32* %4, align 4
  %8 = call i32 @_ZStorSt13_Ios_FmtflagsS_(i32 %6, i32 %7)
  %9 = load i32*, i32** %3, align 8
  store i32 %8, i32* %9, align 4
  ret i32* %9
}

; Function Attrs: noinline nounwind uwtable
define linkonce_odr dso_local i32 @_ZStanSt13_Ios_FmtflagsS_(i32 %0, i32 %1) #5 comdat {
  %3 = alloca i32, align 4
  %4 = alloca i32, align 4
  store i32 %0, i32* %3, align 4
  store i32 %1, i32* %4, align 4
  %5 = load i32, i32* %3, align 4
  %6 = load i32, i32* %4, align 4
  %7 = and i32 %5, %6
  ret i32 %7
}

; Function Attrs: noinline nounwind uwtable
define linkonce_odr dso_local i32 @_ZStorSt13_Ios_FmtflagsS_(i32 %0, i32 %1) #5 comdat {
  %3 = alloca i32, align 4
  %4 = alloca i32, align 4
  store i32 %0, i32* %3, align 4
  store i32 %1, i32* %4, align 4
  %5 = load i32, i32* %3, align 4
  %6 = load i32, i32* %4, align 4
  %7 = or i32 %5, %6
  ret i32 %7
}

; Function Attrs: noinline uwtable
define internal void @_GLOBAL__sub_I_1086.cpp() #0 section ".text.startup" {
  call void @__cxx_global_var_init()
  ret void
}


!llvm.module.flags = !{!0}
!llvm.ident = !{!1}

!0 = !{i32 1, !"wchar_size", i32 4}
!1 = !{!"clang version 10.0.0-4ubuntu1 "}
